target datalayout = "e-m:e-p270:32:32-p271:32:32-p272:64:64-i64:64-i128:128-f80:128-n8:16:32:64-S128"
target triple = "x86_64-pc-linux-gnu"

%struct.aead_chacha20_poly1305_ctx = type { [32 x i8], i8 }
%struct.evp_aead_ctx_st = type { ptr, ptr }

@.str = private unnamed_addr constant [138 x i8] c"generated/home/dtcxzyw/WorkSpace/Projects/compilers/llvm-opt-benchmark/bench/libquic/libquic/boringssl/crypto/cipher/e_chacha20poly1305.c\00", align 1

; Function Attrs: nounwind uwtable
define internal void @aead_poly1305(ptr noundef %0, ptr noundef %1, ptr noundef %2, ptr noundef %3, ptr noundef %4, i64 noundef %5, ptr noundef %6, i64 noundef %7) #0 {
  %9 = alloca ptr, align 8
  %10 = alloca ptr, align 8
  %11 = alloca ptr, align 8
  %12 = alloca ptr, align 8
  %13 = alloca ptr, align 8
  %14 = alloca i64, align 8
  %15 = alloca ptr, align 8
  %16 = alloca i64, align 8
  %17 = alloca [32 x i8], align 16
  %18 = alloca [512 x i8], align 16
  store ptr %0, ptr %9, align 8, !tbaa !24
  store ptr %1, ptr %10, align 8, !tbaa !11
  store ptr %2, ptr %11, align 8, !tbaa !15
  store ptr %3, ptr %12, align 8, !tbaa !11
  store ptr %4, ptr %13, align 8, !tbaa !11
  store i64 %5, ptr %14, align 8, !tbaa !13
  store ptr %6, ptr %15, align 8, !tbaa !11
  store i64 %7, ptr %16, align 8, !tbaa !13
  call void @llvm.lifetime.start.p0(i64 32, ptr %17) #7
  %19 = getelementptr inbounds [32 x i8], ptr %17, i64 0, i64 0
  call void @llvm.memset.p0.i64(ptr align 16 %19, i8 0, i64 32, i1 false)
  %20 = getelementptr inbounds [32 x i8], ptr %17, i64 0, i64 0
  %21 = getelementptr inbounds [32 x i8], ptr %17, i64 0, i64 0
  %22 = load ptr, ptr %11, align 8, !tbaa !15
  %23 = getelementptr inbounds nuw %struct.aead_chacha20_poly1305_ctx, ptr %22, i32 0, i32 0
  %24 = getelementptr inbounds [32 x i8], ptr %23, i64 0, i64 0
  %25 = load ptr, ptr %12, align 8, !tbaa !11
  call void @CRYPTO_chacha_20(ptr noundef %20, ptr noundef %21, i64 noundef 32, ptr noundef %24, ptr noundef %25, i32 noundef 0)
  call void @llvm.lifetime.start.p0(i64 512, ptr %18) #7
  %26 = getelementptr inbounds [32 x i8], ptr %17, i64 0, i64 0
  call void @CRYPTO_poly1305_init(ptr noundef %18, ptr noundef %26)
  %27 = load ptr, ptr %9, align 8, !tbaa !24
  %28 = load ptr, ptr %13, align 8, !tbaa !11
  %29 = load i64, ptr %14, align 8, !tbaa !13
  %30 = load ptr, ptr %15, align 8, !tbaa !11
  %31 = load i64, ptr %16, align 8, !tbaa !13
  call void %27(ptr noundef %18, ptr noundef %28, i64 noundef %29, ptr noundef %30, i64 noundef %31)
  %32 = load ptr, ptr %10, align 8, !tbaa !11
  call void @CRYPTO_poly1305_finish(ptr noundef %18, ptr noundef %32)
  call void @llvm.lifetime.end.p0(i64 512, ptr %18) #7
  call void @llvm.lifetime.end.p0(i64 32, ptr %17) #7
  ret void
}

; Function Attrs: nounwind uwtable
define internal i32 @open_impl(ptr noundef %0, ptr noundef %1, ptr noundef %2, ptr noundef %3, i64 noundef %4, ptr noundef %5, ptr noundef %6, i64 noundef %7, ptr noundef %8, i64 noundef %9) #0 {
  %11 = alloca i32, align 4
  %12 = alloca ptr, align 8
  %13 = alloca ptr, align 8
  %14 = alloca ptr, align 8
  %15 = alloca ptr, align 8
  %16 = alloca i64, align 8
  %17 = alloca ptr, align 8
  %18 = alloca ptr, align 8
  %19 = alloca i64, align 8
  %20 = alloca ptr, align 8
  %21 = alloca i64, align 8
  %22 = alloca ptr, align 8
  %23 = alloca i64, align 8
  %24 = alloca i64, align 8
  %25 = alloca i32, align 4
  %26 = alloca [16 x i8], align 16
  store ptr %0, ptr %12, align 8, !tbaa !24
  store ptr %1, ptr %13, align 8, !tbaa !6
  store ptr %2, ptr %14, align 8, !tbaa !11
  store ptr %3, ptr %15, align 8, !tbaa !22
  store i64 %4, ptr %16, align 8, !tbaa !13
  store ptr %5, ptr %17, align 8, !tbaa !11
  store ptr %6, ptr %18, align 8, !tbaa !11
  store i64 %7, ptr %19, align 8, !tbaa !13
  store ptr %8, ptr %20, align 8, !tbaa !11
  store i64 %9, ptr %21, align 8, !tbaa !13
  call void @llvm.lifetime.start.p0(i64 8, ptr %22) #7
  %27 = load ptr, ptr %13, align 8, !tbaa !6
  %28 = getelementptr inbounds nuw %struct.evp_aead_ctx_st, ptr %27, i32 0, i32 1
  %29 = load ptr, ptr %28, align 8, !tbaa !19
  store ptr %29, ptr %22, align 8, !tbaa !15
  call void @llvm.lifetime.start.p0(i64 8, ptr %23) #7
  call void @llvm.lifetime.start.p0(i64 8, ptr %24) #7
  %30 = load i64, ptr %19, align 8, !tbaa !13
  store i64 %30, ptr %24, align 8, !tbaa !13
  %31 = load i64, ptr %19, align 8, !tbaa !13
  %32 = load ptr, ptr %22, align 8, !tbaa !15
  %33 = getelementptr inbounds nuw %struct.aead_chacha20_poly1305_ctx, ptr %32, i32 0, i32 1
  %34 = load i8, ptr %33, align 1, !tbaa !17
  %35 = zext i8 %34 to i64
  %36 = icmp ult i64 %31, %35
  br i1 %36, label %37, label %38

37:                                               ; preds = %10
  call void @ERR_put_error(i32 noundef 30, i32 noundef 0, i32 noundef 101, ptr noundef @.str, i32 noundef 155)
  store i32 0, ptr %11, align 4
  store i32 1, ptr %25, align 4
  br label %79

38:                                               ; preds = %10
  %39 = load i64, ptr %24, align 8, !tbaa !13
  %40 = icmp uge i64 %39, 274877906880
  br i1 %40, label %41, label %42

41:                                               ; preds = %38
  call void @ERR_put_error(i32 noundef 30, i32 noundef 0, i32 noundef 117, ptr noundef @.str, i32 noundef 166)
  store i32 0, ptr %11, align 4
  store i32 1, ptr %25, align 4
  br label %79

42:                                               ; preds = %38
  %43 = load i64, ptr %19, align 8, !tbaa !13
  %44 = load ptr, ptr %22, align 8, !tbaa !15
  %45 = getelementptr inbounds nuw %struct.aead_chacha20_poly1305_ctx, ptr %44, i32 0, i32 1
  %46 = load i8, ptr %45, align 1, !tbaa !17
  %47 = zext i8 %46 to i64
  %48 = sub i64 %43, %47
  store i64 %48, ptr %23, align 8, !tbaa !13
  call void @llvm.lifetime.start.p0(i64 16, ptr %26) #7
  %49 = load ptr, ptr %12, align 8, !tbaa !24
  %50 = getelementptr inbounds [16 x i8], ptr %26, i64 0, i64 0
  %51 = load ptr, ptr %22, align 8, !tbaa !15
  %52 = load ptr, ptr %17, align 8, !tbaa !11
  %53 = load ptr, ptr %20, align 8, !tbaa !11
  %54 = load i64, ptr %21, align 8, !tbaa !13
  %55 = load ptr, ptr %18, align 8, !tbaa !11
  %56 = load i64, ptr %23, align 8, !tbaa !13
  call void @aead_poly1305(ptr noundef %49, ptr noundef %50, ptr noundef %51, ptr noundef %52, ptr noundef %53, i64 noundef %54, ptr noundef %55, i64 noundef %56)
  %57 = getelementptr inbounds [16 x i8], ptr %26, i64 0, i64 0
  %58 = load ptr, ptr %18, align 8, !tbaa !11
  %59 = load i64, ptr %23, align 8, !tbaa !13
  %60 = getelementptr inbounds nuw i8, ptr %58, i64 %59
  %61 = load ptr, ptr %22, align 8, !tbaa !15
  %62 = getelementptr inbounds nuw %struct.aead_chacha20_poly1305_ctx, ptr %61, i32 0, i32 1
  %63 = load i8, ptr %62, align 1, !tbaa !17
  %64 = zext i8 %63 to i64
  %65 = call i32 @CRYPTO_memcmp(ptr noundef %57, ptr noundef %60, i64 noundef %64)
  %66 = icmp ne i32 %65, 0
  br i1 %66, label %67, label %68

67:                                               ; preds = %42
  call void @ERR_put_error(i32 noundef 30, i32 noundef 0, i32 noundef 101, ptr noundef @.str, i32 noundef 175)
  store i32 0, ptr %11, align 4
  store i32 1, ptr %25, align 4
  br label %78

68:                                               ; preds = %42
  %69 = load ptr, ptr %14, align 8, !tbaa !11
  %70 = load ptr, ptr %18, align 8, !tbaa !11
  %71 = load i64, ptr %23, align 8, !tbaa !13
  %72 = load ptr, ptr %22, align 8, !tbaa !15
  %73 = getelementptr inbounds nuw %struct.aead_chacha20_poly1305_ctx, ptr %72, i32 0, i32 0
  %74 = getelementptr inbounds [32 x i8], ptr %73, i64 0, i64 0
  %75 = load ptr, ptr %17, align 8, !tbaa !11
  call void @CRYPTO_chacha_20(ptr noundef %69, ptr noundef %70, i64 noundef %71, ptr noundef %74, ptr noundef %75, i32 noundef 1)
  %76 = load i64, ptr %23, align 8, !tbaa !13
  %77 = load ptr, ptr %15, align 8, !tbaa !22
  store i64 %76, ptr %77, align 8, !tbaa !13
  store i32 1, ptr %11, align 4
  store i32 1, ptr %25, align 4
  br label %78

78:                                               ; preds = %68, %67
  call void @llvm.lifetime.end.p0(i64 16, ptr %26) #7
  br label %79

79:                                               ; preds = %78, %41, %37
  call void @llvm.lifetime.end.p0(i64 8, ptr %24) #7
  call void @llvm.lifetime.end.p0(i64 8, ptr %23) #7
  call void @llvm.lifetime.end.p0(i64 8, ptr %22) #7
  %80 = load i32, ptr %11, align 4
  ret i32 %80
}