; Function Attrs: nounwind uwtable
define internal fastcc range(i32 0, 2) i32 @open_impl(ptr noundef readonly captures(none) %0, ptr %.8.val, ptr noundef %1, ptr noundef writeonly captures(none) %2, ptr noundef %3, ptr noundef %4, i64 noundef %5, ptr noundef %6, i64 noundef %7) unnamed_addr #1 {
  %9 = alloca [32 x i8], align 16
  %10 = alloca [512 x i8], align 16
  %11 = alloca [16 x i8], align 16
  %12 = getelementptr inbounds nuw i8, ptr %.8.val, i64 32
  %13 = load i8, ptr %12, align 1, !tbaa !6
  %14 = zext i8 %13 to i64
  %15 = icmp ult i64 %5, %14
  br i1 %15, label %16, label %17

16:                                               ; preds = %8
  tail call void @ERR_put_error(i32 noundef 30, i32 noundef 0, i32 noundef 101, ptr noundef nonnull @.str, i32 noundef 155) #8
  br label %29

17:                                               ; preds = %8
  %18 = icmp ugt i64 %5, 274877906879
  br i1 %18, label %19, label %20

19:                                               ; preds = %17
  tail call void @ERR_put_error(i32 noundef 30, i32 noundef 0, i32 noundef 117, ptr noundef nonnull @.str, i32 noundef 166) #8
  br label %29

20:                                               ; preds = %17
  %21 = sub nsw i64 %5, %14
  call void @llvm.lifetime.start.p0(i64 16, ptr nonnull %11) #8
  call void @llvm.lifetime.start.p0(i64 32, ptr nonnull %9) #8
  call void @llvm.memset.p0.i64(ptr noundef nonnull align 16 dereferenceable(32) %9, i8 0, i64 32, i1 false)
  call void @CRYPTO_chacha_20(ptr noundef nonnull %9, ptr noundef nonnull %9, i64 noundef 32, ptr noundef nonnull %.8.val, ptr noundef %3, i32 noundef 0) #8
  call void @llvm.lifetime.start.p0(i64 512, ptr nonnull %10) #8
  call void @CRYPTO_poly1305_init(ptr noundef nonnull %10, ptr noundef nonnull %9) #8
  call void %0(ptr noundef nonnull %10, ptr noundef %6, i64 noundef %7, ptr noundef %4, i64 noundef range(i64 -255, 274877906880) %21) #8, !callees !14
  call void @CRYPTO_poly1305_finish(ptr noundef nonnull %10, ptr noundef nonnull %11) #8
  call void @llvm.lifetime.end.p0(i64 512, ptr nonnull %10) #8
  call void @llvm.lifetime.end.p0(i64 32, ptr nonnull %9) #8
  %22 = getelementptr inbounds nuw i8, ptr %4, i64 %21
  %23 = load i8, ptr %12, align 1, !tbaa !6
  %24 = zext i8 %23 to i64
  %25 = call i32 @CRYPTO_memcmp(ptr noundef nonnull %11, ptr noundef %22, i64 noundef %24) #8
  %.not = icmp eq i32 %25, 0
  br i1 %.not, label %27, label %26

26:                                               ; preds = %20
  call void @ERR_put_error(i32 noundef 30, i32 noundef 0, i32 noundef 101, ptr noundef nonnull @.str, i32 noundef 175) #8
  br label %28

27:                                               ; preds = %20
  call void @CRYPTO_chacha_20(ptr noundef %1, ptr noundef %4, i64 noundef %21, ptr noundef nonnull %.8.val, ptr noundef %3, i32 noundef 1) #8
  store i64 %21, ptr %2, align 8, !tbaa !15
  br label %28

28:                                               ; preds = %27, %26
  %.1 = phi i32 [ 0, %26 ], [ 1, %27 ]
  call void @llvm.lifetime.end.p0(i64 16, ptr nonnull %11) #8
  br label %29

29:                                               ; preds = %28, %19, %16
  %.0 = phi i32 [ 0, %16 ], [ 0, %19 ], [ %.1, %28 ]
  ret i32 %.0
}